; Function Attrs: nounwind uwtable
define range(i32 0, 2) i32 @Cec_ManSRunSimInt(ptr noundef captures(none) %0) local_unnamed_addr #0 {
  %2 = getelementptr inbounds nuw i8, ptr %0, i64 4
  %3 = load i32, ptr %2, align 4, !tbaa !68
  %4 = getelementptr inbounds nuw i8, ptr %0, i64 8
  %5 = load i32, ptr %4, align 8, !tbaa !69
  %.not49 = icmp slt i32 %3, %5
  br i1 %.not49, label %.critedge, label %.lr.ph52

.lr.ph52:                                         ; preds = %1
  %6 = getelementptr inbounds nuw i8, ptr %0, i64 32
  %7 = getelementptr inbounds nuw i8, ptr %0, i64 16
  %8 = getelementptr i8, ptr %0, i64 40
  %9 = sext i32 %3 to i64
  br label %10

10:                                               ; preds = %.lr.ph52, %.critedge2
  %11 = phi i32 [ %5, %.lr.ph52 ], [ %53, %.critedge2 ]
  %indvars.iv55 = phi i64 [ %9, %.lr.ph52 ], [ %indvars.iv.next56, %.critedge2 ]
  %.03050 = phi i32 [ 0, %.lr.ph52 ], [ %.1.lcssa, %.critedge2 ]
  %12 = load ptr, ptr %6, align 8, !tbaa !25
  %13 = getelementptr i8, ptr %12, i64 8
  %.val42 = load ptr, ptr %13, align 8, !tbaa !23
  %14 = getelementptr inbounds %struct.Vec_Int_t_, ptr %.val42, i64 %indvars.iv55
  %15 = getelementptr i8, ptr %14, i64 4
  %.val3846 = load i32, ptr %15, align 4, !tbaa !15
  %16 = icmp sgt i32 %.val3846, 0
  br i1 %16, label %.lr.ph, label %.critedge2

.lr.ph:                                           ; preds = %10
  %17 = getelementptr i8, ptr %14, i64 8
  br label %18

18:                                               ; preds = %.lr.ph, %Abc_TtClear.exit
  %indvars.iv = phi i64 [ 0, %.lr.ph ], [ %indvars.iv.next, %Abc_TtClear.exit ]
  %.148 = phi i32 [ %.03050, %.lr.ph ], [ %.260, %Abc_TtClear.exit ]
  %.val39 = load ptr, ptr %17, align 8, !tbaa !19
  %19 = getelementptr inbounds nuw i32, ptr %.val39, i64 %indvars.iv
  %20 = load i32, ptr %19, align 4, !tbaa !55
  %21 = load ptr, ptr %7, align 8, !tbaa !14
  %22 = getelementptr i8, ptr %21, i64 32
  %.val = load ptr, ptr %22, align 8, !tbaa !52
  %23 = sext i32 %20 to i64
  %24 = getelementptr inbounds %struct.Gia_Obj_t_, ptr %.val, i64 %23
  %.not32 = icmp eq i32 %.148, 0
  br i1 %.not32, label %25, label %Abc_TtIsConst1.exit

25:                                               ; preds = %18
  %26 = tail call i32 @Cec_ManSRunPropagate(ptr noundef nonnull %0, i32 noundef %20)
  %.not33 = icmp eq i32 %26, 0
  br i1 %.not33, label %Abc_TtIsConst1.exit, label %27

27:                                               ; preds = %25
  %.val35 = load i64, ptr %24, align 4
  %28 = trunc i64 %.val35 to i32
  %29 = and i32 %28, 536870911
  %30 = sub nsw i32 %20, %29
  tail call void @Cec_ManSInsert(ptr noundef nonnull %0, i32 noundef %30)
  %.val36 = load i64, ptr %24, align 4
  %31 = lshr i64 %.val36, 32
  %32 = trunc nuw i64 %31 to i32
  %33 = and i32 %32, 536870911
  %34 = sub nsw i32 %20, %33
  tail call void @Cec_ManSInsert(ptr noundef nonnull %0, i32 noundef %34)
  %35 = load ptr, ptr %8, align 8, !tbaa !45
  %36 = getelementptr i8, ptr %35, i64 8
  %.val37 = load ptr, ptr %36, align 8, !tbaa !43
  %37 = load i32, ptr %0, align 8, !tbaa !3
  %38 = icmp sgt i32 %37, 0
  br i1 %38, label %.lr.ph.preheader.i, label %Abc_TtClear.exit

.lr.ph.preheader.i:                               ; preds = %27
  %wide.trip.count.i = zext nneg i32 %37 to i64
  br label %.lr.ph.i

39:                                               ; preds = %.lr.ph.i
  %indvars.iv.next.i = add nuw nsw i64 %indvars.iv.i, 1
  %exitcond.not.i = icmp eq i64 %indvars.iv.next.i, %wide.trip.count.i
  br i1 %exitcond.not.i, label %Abc_TtIsConst1.exit, label %.lr.ph.i, !llvm.loop !70

.lr.ph.i:                                         ; preds = %39, %.lr.ph.preheader.i
  %indvars.iv.i = phi i64 [ 0, %.lr.ph.preheader.i ], [ %indvars.iv.next.i, %39 ]
  %40 = getelementptr inbounds nuw i64, ptr %.val37, i64 %indvars.iv.i
  %41 = load i64, ptr %40, align 8, !tbaa !49
  %.not.i = icmp eq i64 %41, -1
  br i1 %.not.i, label %39, label %Abc_TtIsConst1.exit

Abc_TtIsConst1.exit:                              ; preds = %39, %.lr.ph.i, %25, %18
  %.2.ph = phi i32 [ 0, %25 ], [ 1, %18 ], [ 0, %.lr.ph.i ], [ 1, %39 ]
  %.val40.pr = load i32, ptr %0, align 8, !tbaa !3
  %42 = icmp sgt i32 %.val40.pr, 0
  br i1 %42, label %.lr.ph.preheader.i43, label %Abc_TtClear.exit

.lr.ph.preheader.i43:                             ; preds = %Abc_TtIsConst1.exit
  %43 = shl nuw nsw i32 %.val40.pr, 1
  %.val41 = load ptr, ptr %8, align 8, !tbaa !45
  %44 = getelementptr i8, ptr %.val41, i64 8
  %.val41.val = load ptr, ptr %44, align 8, !tbaa !43
  %45 = shl nsw i32 %20, 1
  %46 = mul nsw i32 %45, %.val40.pr
  %47 = sext i32 %46 to i64
  %48 = getelementptr inbounds i64, ptr %.val41.val, i64 %47
  %49 = zext nneg i32 %43 to i64
  %50 = shl nuw nsw i64 %49, 3
  tail call void @llvm.memset.p0.i64(ptr align 8 %48, i8 0, i64 %50, i1 false), !tbaa !49
  br label %Abc_TtClear.exit

Abc_TtClear.exit:                                 ; preds = %27, %Abc_TtIsConst1.exit, %.lr.ph.preheader.i43
  %.260 = phi i32 [ %.2.ph, %Abc_TtIsConst1.exit ], [ %.2.ph, %.lr.ph.preheader.i43 ], [ 1, %27 ]
  %indvars.iv.next = add nuw nsw i64 %indvars.iv, 1
  %.val38 = load i32, ptr %15, align 4, !tbaa !15
  %51 = sext i32 %.val38 to i64
  %52 = icmp slt i64 %indvars.iv.next, %51
  br i1 %52, label %18, label %.critedge2.loopexit, !llvm.loop !71

.critedge2.loopexit:                              ; preds = %Abc_TtClear.exit
  %.pre = load i32, ptr %4, align 8, !tbaa !69
  br label %.critedge2

.critedge2:                                       ; preds = %.critedge2.loopexit, %10
  %53 = phi i32 [ %11, %10 ], [ %.pre, %.critedge2.loopexit ]
  %.1.lcssa = phi i32 [ %.03050, %10 ], [ %.260, %.critedge2.loopexit ]
  store i32 0, ptr %15, align 4, !tbaa !15
  %indvars.iv.next56 = add nsw i64 %indvars.iv55, -1
  %54 = sext i32 %53 to i64
  %.not.not = icmp sgt i64 %indvars.iv55, %54
  br i1 %.not.not, label %10, label %.critedge, !llvm.loop !72

.critedge:                                        ; preds = %.critedge2, %1
  %.030.lcssa = phi i32 [ 0, %1 ], [ %.1.lcssa, %.critedge2 ]
  ret i32 %.030.lcssa
}